; Function Attrs: nounwind uwtable
define void @Gia_ManMatchConesOutputFree(ptr noundef captures(none) %0) local_unnamed_addr #0 {
  %2 = getelementptr i8, ptr %0, i64 4
  %.val7 = load i32, ptr %2, align 4, !tbaa !193
  %3 = icmp sgt i32 %.val7, 0
  br i1 %3, label %.lr.ph, label %.critedge

.lr.ph:                                           ; preds = %1
  %4 = getelementptr i8, ptr %0, i64 8
  br label %5

5:                                                ; preds = %.lr.ph, %Vec_WecFree.exit
  %indvars.iv = phi i64 [ 0, %.lr.ph ], [ %indvars.iv.next, %Vec_WecFree.exit ]
  %.val6 = load ptr, ptr %4, align 8, !tbaa !196
  %6 = getelementptr inbounds nuw ptr, ptr %.val6, i64 %indvars.iv
  %7 = load ptr, ptr %6, align 8, !tbaa !197
  %8 = load i32, ptr %7, align 8, !tbaa !99
  %9 = icmp sgt i32 %8, 0
  %10 = getelementptr inbounds nuw i8, ptr %7, i64 8
  %.pre.i.i = load ptr, ptr %10, align 8, !tbaa !34
  br i1 %9, label %.lr.ph.i.i, label %._crit_edge.i.i

.lr.ph.i.i:                                       ; preds = %5, %18
  %11 = phi i32 [ %19, %18 ], [ %8, %5 ]
  %12 = phi ptr [ %20, %18 ], [ %.pre.i.i, %5 ]
  %indvars.iv.i.i = phi i64 [ %indvars.iv.next.i.i, %18 ], [ 0, %5 ]
  %13 = getelementptr inbounds nuw %struct.Vec_Int_t_, ptr %12, i64 %indvars.iv.i.i, i32 2
  %14 = load ptr, ptr %13, align 8, !tbaa !36
  %.not15.i.i = icmp eq ptr %14, null
  br i1 %.not15.i.i, label %18, label %15

15:                                               ; preds = %.lr.ph.i.i
  tail call void @free(ptr noundef nonnull %14) #26
  %16 = load ptr, ptr %10, align 8, !tbaa !34
  %17 = getelementptr inbounds nuw %struct.Vec_Int_t_, ptr %16, i64 %indvars.iv.i.i, i32 2
  store ptr null, ptr %17, align 8, !tbaa !36
  %.pre18.i.i = load i32, ptr %7, align 8, !tbaa !99
  br label %18

18:                                               ; preds = %15, %.lr.ph.i.i
  %19 = phi i32 [ %.pre18.i.i, %15 ], [ %11, %.lr.ph.i.i ]
  %20 = phi ptr [ %16, %15 ], [ %12, %.lr.ph.i.i ]
  %indvars.iv.next.i.i = add nuw nsw i64 %indvars.iv.i.i, 1
  %21 = sext i32 %19 to i64
  %22 = icmp slt i64 %indvars.iv.next.i.i, %21
  br i1 %22, label %.lr.ph.i.i, label %._crit_edge.thread.i.i, !llvm.loop !106

._crit_edge.i.i:                                  ; preds = %5
  %.not.i.i = icmp eq ptr %.pre.i.i, null
  br i1 %.not.i.i, label %Vec_WecFree.exit, label %._crit_edge.thread.i.i

._crit_edge.thread.i.i:                           ; preds = %18, %._crit_edge.i.i
  %23 = phi ptr [ %.pre.i.i, %._crit_edge.i.i ], [ %20, %18 ]
  tail call void @free(ptr noundef nonnull %23) #26
  br label %Vec_WecFree.exit

Vec_WecFree.exit:                                 ; preds = %._crit_edge.i.i, %._crit_edge.thread.i.i
  tail call void @free(ptr noundef nonnull %7) #26
  %indvars.iv.next = add nuw nsw i64 %indvars.iv, 1
  %.val = load i32, ptr %2, align 4, !tbaa !193
  %24 = sext i32 %.val to i64
  %25 = icmp slt i64 %indvars.iv.next, %24
  br i1 %25, label %5, label %.critedge, !llvm.loop !227

.critedge:                                        ; preds = %Vec_WecFree.exit, %1
  %26 = getelementptr inbounds nuw i8, ptr %0, i64 8
  %27 = load ptr, ptr %26, align 8, !tbaa !196
  %.not.i = icmp eq ptr %27, null
  br i1 %.not.i, label %Vec_PtrFree.exit, label %28

28:                                               ; preds = %.critedge
  tail call void @free(ptr noundef nonnull %27) #26
  br label %Vec_PtrFree.exit

Vec_PtrFree.exit:                                 ; preds = %.critedge, %28
  tail call void @free(ptr noundef nonnull %0) #26
  ret void
}